; Function Attrs: nounwind uwtable
define dso_local ptr @PyObject_Vectorcall(ptr noundef %0, ptr noundef %1, i64 noundef %2, ptr noundef %3) local_unnamed_addr #0 {
  %5 = tail call align 8 ptr @llvm.threadlocal.address.p0(ptr align 8 @_Py_tss_tstate)
  %6 = load ptr, ptr %5, align 8, !tbaa !25
  %7 = getelementptr i8, ptr %0, i64 8
  %.val.i.i = load ptr, ptr %7, align 8, !tbaa !20
  %8 = getelementptr i8, ptr %.val.i.i, i64 168
  %.val6.i.i = load i64, ptr %8, align 8, !tbaa !34
  %9 = and i64 %.val6.i.i, 2048
  %.not.i.i = icmp eq i64 %9, 0
  br i1 %.not.i.i, label %_PyVectorcall_FunctionInline.exit.thread.i, label %_PyVectorcall_FunctionInline.exit.i

_PyVectorcall_FunctionInline.exit.i:              ; preds = %4
  %10 = getelementptr inbounds nuw i8, ptr %.val.i.i, i64 56
  %11 = load i64, ptr %10, align 8, !tbaa !35
  %12 = getelementptr i8, ptr %0, i64 %11
  %.0.copyload.i.i = load ptr, ptr %12, align 1
  %13 = icmp eq ptr %.0.copyload.i.i, null
  br i1 %13, label %_PyVectorcall_FunctionInline.exit.thread.i, label %16

_PyVectorcall_FunctionInline.exit.thread.i:       ; preds = %_PyVectorcall_FunctionInline.exit.i, %4
  %14 = and i64 %2, 9223372036854775807
  %15 = tail call ptr @_PyObject_MakeTpCall(ptr noundef %6, ptr noundef nonnull %0, ptr noundef %1, i64 noundef %14, ptr noundef %3)
  br label %_PyObject_VectorcallTstate.exit

16:                                               ; preds = %_PyVectorcall_FunctionInline.exit.i
  %17 = tail call ptr %.0.copyload.i.i(ptr noundef nonnull %0, ptr noundef %1, i64 noundef %2, ptr noundef %3) #10
  %18 = icmp eq ptr %17, null
  %19 = getelementptr i8, ptr %6, i64 112
  %.val.i = load ptr, ptr %19, align 8, !tbaa !4
  %20 = icmp eq ptr %.val.i, null
  br i1 %18, label %21, label %26

21:                                               ; preds = %16
  br i1 %20, label %23, label %_PyErr_Occurred.exit.i

_PyErr_Occurred.exit.i:                           ; preds = %21
  %22 = getelementptr i8, ptr %.val.i, i64 8
  %.val.i.i6 = load ptr, ptr %22, align 8, !tbaa !20
  %.not19.i = icmp eq ptr %.val.i.i6, null
  br i1 %.not19.i, label %23, label %_PyObject_VectorcallTstate.exit

23:                                               ; preds = %21, %_PyErr_Occurred.exit.i
  %24 = load ptr, ptr @PyExc_SystemError, align 8, !tbaa !23
  %25 = tail call ptr (ptr, ptr, ptr, ...) @_PyErr_Format(ptr noundef nonnull %6, ptr noundef %24, ptr noundef nonnull @.str, ptr noundef nonnull %0) #10
  br label %_PyObject_VectorcallTstate.exit

26:                                               ; preds = %16
  br i1 %20, label %_PyObject_VectorcallTstate.exit, label %_PyErr_Occurred.exit24.i

_PyErr_Occurred.exit24.i:                         ; preds = %26
  %27 = getelementptr i8, ptr %.val.i, i64 8
  %.val.i22.i = load ptr, ptr %27, align 8, !tbaa !20
  %.not.i = icmp eq ptr %.val.i22.i, null
  br i1 %.not.i, label %_PyObject_VectorcallTstate.exit, label %28

28:                                               ; preds = %_PyErr_Occurred.exit24.i
  %29 = load i32, ptr %17, align 8, !tbaa !24
  %.not.i.i4 = icmp sgt i32 %29, -1
  br i1 %.not.i.i4, label %30, label %34

30:                                               ; preds = %28
  %31 = add nsw i32 %29, -1
  store i32 %31, ptr %17, align 8, !tbaa !24
  %32 = icmp eq i32 %31, 0
  br i1 %32, label %33, label %34

33:                                               ; preds = %30
  tail call void @_Py_Dealloc(ptr noundef nonnull %17) #10
  br label %34

34:                                               ; preds = %28, %30, %33
  %35 = load ptr, ptr @PyExc_SystemError, align 8, !tbaa !23
  %36 = tail call ptr (ptr, ptr, ptr, ...) @_PyErr_FormatFromCauseTstate(ptr noundef nonnull %6, ptr noundef %35, ptr noundef nonnull @.str.2, ptr noundef nonnull %0) #10
  br label %_PyObject_VectorcallTstate.exit

_PyObject_VectorcallTstate.exit:                  ; preds = %34, %_PyErr_Occurred.exit24.i, %26, %23, %_PyErr_Occurred.exit.i, %_PyVectorcall_FunctionInline.exit.thread.i
  %.0.i = phi ptr [ %15, %_PyVectorcall_FunctionInline.exit.thread.i ], [ null, %23 ], [ null, %34 ], [ %17, %_PyErr_Occurred.exit24.i ], [ null, %_PyErr_Occurred.exit.i ], [ %17, %26 ]
  ret ptr %.0.i
}